; Function Attrs: mustprogress uwtable
define noundef range(i32 1, 3) i32 @_ZN10open_spiel14dots_and_boxes13PlayerToStateEi(i32 noundef %0) local_unnamed_addr #3 personality ptr @__gxx_personality_v0 {
  %2 = alloca %"class.std::__cxx11::basic_string", align 8
  %3 = alloca %"class.absl::debian2::AlphaNum", align 8
  %4 = alloca %"class.absl::debian2::AlphaNum", align 8
  switch i32 %0, label %_ZN4absl7debian28AlphaNumC2EPKc.exit [
    i32 0, label %18
    i32 1, label %5
  ]

5:                                                ; preds = %1
  br label %18

_ZN4absl7debian28AlphaNumC2EPKc.exit:             ; preds = %1
  store ptr @.str.7, ptr %3, align 8
  %6 = getelementptr inbounds nuw i8, ptr %3, i64 8
  store i64 18, ptr %6, align 8
  %7 = getelementptr inbounds nuw i8, ptr %4, i64 16
  %8 = call noundef ptr @_ZN4absl7debian216numbers_internal15FastIntToBufferEiPc(i32 noundef %0, ptr noundef nonnull %7)
  %9 = ptrtoint ptr %8 to i64
  %10 = ptrtoint ptr %7 to i64
  %11 = sub i64 %9, %10
  store ptr %7, ptr %4, align 8
  %12 = icmp sgt i64 %11, -1
  br i1 %12, label %_ZN4absl7debian28AlphaNumC2Ei.exit, label %13

13:                                               ; preds = %_ZN4absl7debian28AlphaNumC2EPKc.exit
  call void @llvm.trap()
  unreachable

_ZN4absl7debian28AlphaNumC2Ei.exit:               ; preds = %_ZN4absl7debian28AlphaNumC2EPKc.exit
  %14 = getelementptr inbounds nuw i8, ptr %4, i64 8
  store i64 %11, ptr %14, align 8
  call void @_ZN4absl7debian26StrCatB5cxx11ERKNS0_8AlphaNumES3_(ptr dead_on_unwind nonnull writable sret(%"class.std::__cxx11::basic_string") align 8 %2, ptr noundef nonnull align 8 dereferenceable(48) %3, ptr noundef nonnull align 8 dereferenceable(48) %4)
  invoke void @_ZN10open_spiel15SpielFatalErrorERKNSt7__cxx1112basic_stringIcSt11char_traitsIcESaIcEEE(ptr noundef nonnull align 8 dereferenceable(32) %2) #25
          to label %15 unwind label %16

15:                                               ; preds = %_ZN4absl7debian28AlphaNumC2Ei.exit
  unreachable

16:                                               ; preds = %_ZN4absl7debian28AlphaNumC2Ei.exit
  %17 = landingpad { ptr, i32 }
          cleanup
  call void @_ZNSt7__cxx1112basic_stringIcSt11char_traitsIcESaIcEED1Ev(ptr noundef nonnull align 8 dereferenceable(32) %2) #26
  resume { ptr, i32 } %17

18:                                               ; preds = %1, %5
  %.0 = phi i32 [ 2, %5 ], [ 1, %1 ]
  ret i32 %.0
}